target datalayout = "e-m:e-p270:32:32-p271:32:32-p272:64:64-i64:64-i128:128-f80:128-n8:16:32:64-S128"
target triple = "x86_64-pc-linux-gnu"

@proto_mac_mgmt_msg_ulmap_decoder = internal global i32 0, align 4
@hf_ulmap_ucd_count = internal global i32 0, align 4
@hf_ulmap_alloc_start_time = internal global i32 0, align 4
@hf_ulmap_ofdma_sym = internal global i32 0, align 4
@.str.11 = private unnamed_addr constant [22 x i8] c"UL-MAP IEs (%u bytes)\00", align 1
@hf_ulmap_padding = internal global i32 0, align 4
@.str.12 = private unnamed_addr constant [15 x i8] c"Padding nibble\00", align 1
@hf_ulmap_reserved = internal global i32 0, align 4
@ett_ulmap = internal global i32 0, align 4
@ett_ulmap_ie = internal global i32 0, align 4
@.str.558 = private unnamed_addr constant [7 x i8] c"UL-MAP\00", align 1

; Function Attrs: null_pointer_is_valid sspstrong uwtable
define internal i32 @dissect_mac_mgmt_msg_ulmap_decoder(ptr noundef %0, ptr noundef %1, ptr noundef %2, ptr noundef %3) #1 {
  %5 = alloca ptr, align 8
  %6 = alloca ptr, align 8
  %7 = alloca ptr, align 8
  %8 = alloca ptr, align 8
  %9 = alloca i32, align 4
  %10 = alloca i32, align 4
  %11 = alloca i32, align 4
  %12 = alloca i32, align 4
  %13 = alloca ptr, align 8
  %14 = alloca ptr, align 8
  %15 = alloca ptr, align 8
  %16 = alloca i32, align 4
  store ptr %0, ptr %5, align 8
  store ptr %1, ptr %6, align 8
  store ptr %2, ptr %7, align 8
  store ptr %3, ptr %8, align 8
  call void @llvm.lifetime.start.p0(i64 4, ptr %9) #5
  store i32 0, ptr %9, align 4
  call void @llvm.lifetime.start.p0(i64 4, ptr %10) #5
  call void @llvm.lifetime.start.p0(i64 4, ptr %11) #5
  call void @llvm.lifetime.start.p0(i64 4, ptr %12) #5
  call void @llvm.lifetime.start.p0(i64 8, ptr %13) #5
  store ptr null, ptr %13, align 8
  call void @llvm.lifetime.start.p0(i64 8, ptr %14) #5
  store ptr null, ptr %14, align 8
  call void @llvm.lifetime.start.p0(i64 8, ptr %15) #5
  store ptr null, ptr %15, align 8
  call void @llvm.lifetime.start.p0(i64 4, ptr %16) #5
  %17 = load ptr, ptr %5, align 8
  %18 = call i32 @tvb_reported_length(ptr noundef %17)
  store i32 %18, ptr %16, align 4
  %19 = load ptr, ptr %7, align 8
  %20 = load i32, ptr @proto_mac_mgmt_msg_ulmap_decoder, align 4
  %21 = load ptr, ptr %5, align 8
  %22 = load i32, ptr %9, align 4
  %23 = call ptr (ptr, i32, ptr, i32, i32, ptr, ...) @proto_tree_add_protocol_format(ptr noundef %19, i32 noundef %20, ptr noundef %21, i32 noundef %22, i32 noundef -1, ptr noundef @.str.558)
  store ptr %23, ptr %13, align 8
  %24 = load ptr, ptr %13, align 8
  %25 = load i32, ptr @ett_ulmap, align 4
  %26 = call ptr @proto_item_add_subtree(ptr noundef %24, i32 noundef %25)
  store ptr %26, ptr %14, align 8
  %27 = load ptr, ptr %14, align 8
  %28 = load i32, ptr @hf_ulmap_reserved, align 4
  %29 = load ptr, ptr %5, align 8
  %30 = load i32, ptr %9, align 4
  %31 = call ptr @proto_tree_add_item(ptr noundef %27, i32 noundef %28, ptr noundef %29, i32 noundef %30, i32 noundef 1, i32 noundef 0)
  %32 = load i32, ptr %9, align 4
  %33 = add i32 %32, 1
  store i32 %33, ptr %9, align 4
  %34 = load ptr, ptr %14, align 8
  %35 = load i32, ptr @hf_ulmap_ucd_count, align 4
  %36 = load ptr, ptr %5, align 8
  %37 = load i32, ptr %9, align 4
  %38 = call ptr @proto_tree_add_item(ptr noundef %34, i32 noundef %35, ptr noundef %36, i32 noundef %37, i32 noundef 1, i32 noundef 0)
  %39 = load i32, ptr %9, align 4
  %40 = add i32 %39, 1
  store i32 %40, ptr %9, align 4
  %41 = load ptr, ptr %14, align 8
  %42 = load i32, ptr @hf_ulmap_alloc_start_time, align 4
  %43 = load ptr, ptr %5, align 8
  %44 = load i32, ptr %9, align 4
  %45 = call ptr @proto_tree_add_item(ptr noundef %41, i32 noundef %42, ptr noundef %43, i32 noundef %44, i32 noundef 4, i32 noundef 0)
  %46 = load i32, ptr %9, align 4
  %47 = add i32 %46, 4
  store i32 %47, ptr %9, align 4
  %48 = load ptr, ptr %14, align 8
  %49 = load i32, ptr @hf_ulmap_ofdma_sym, align 4
  %50 = load ptr, ptr %5, align 8
  %51 = load i32, ptr %9, align 4
  %52 = call ptr @proto_tree_add_item(ptr noundef %48, i32 noundef %49, ptr noundef %50, i32 noundef %51, i32 noundef 1, i32 noundef 0)
  %53 = load i32, ptr %9, align 4
  %54 = add i32 %53, 1
  store i32 %54, ptr %9, align 4
  %55 = load i32, ptr %16, align 4
  %56 = load i32, ptr %9, align 4
  %57 = sub i32 %55, %56
  store i32 %57, ptr %10, align 4
  %58 = load ptr, ptr %14, align 8
  %59 = load ptr, ptr %5, align 8
  %60 = load i32, ptr %9, align 4
  %61 = load i32, ptr %10, align 4
  %62 = load i32, ptr @ett_ulmap_ie, align 4
  %63 = load i32, ptr %10, align 4
  %64 = call ptr (ptr, ptr, i32, i32, i32, ptr, ptr, ...) @proto_tree_add_subtree_format(ptr noundef %58, ptr noundef %59, i32 noundef %60, i32 noundef %61, i32 noundef %62, ptr noundef null, ptr noundef @.str.11, i32 noundef %63)
  store ptr %64, ptr %15, align 8
  %65 = load i32, ptr %9, align 4
  %66 = mul i32 %65, 2
  store i32 %66, ptr %11, align 4
  br label %67

67:                                               ; preds = %73, %4
  %68 = load i32, ptr %11, align 4
  %69 = load i32, ptr %16, align 4
  %70 = mul i32 %69, 2
  %71 = sub i32 %70, 1
  %72 = icmp ult i32 %68, %71
  br i1 %72, label %73, label %83

73:                                               ; preds = %67
  %74 = load ptr, ptr %15, align 8
  %75 = load ptr, ptr %6, align 8
  %76 = load i32, ptr %11, align 4
  %77 = load i32, ptr %16, align 4
  %78 = mul i32 %77, 2
  %79 = load ptr, ptr %5, align 8
  %80 = call i32 @dissect_ulmap_ie(ptr noundef %74, ptr noundef %75, i32 noundef %76, i32 noundef %78, ptr noundef %79)
  %81 = load i32, ptr %11, align 4
  %82 = add i32 %81, %80
  store i32 %82, ptr %11, align 4
  br label %67, !llvm.loop !21

83:                                               ; preds = %67
  %84 = load i32, ptr %11, align 4
  %85 = and i32 %84, 1
  store i32 %85, ptr %12, align 4
  %86 = load i32, ptr %12, align 4
  %87 = icmp ne i32 %86, 0
  br i1 %87, label %88, label %102

88:                                               ; preds = %83
  %89 = load ptr, ptr %14, align 8
  %90 = load i32, ptr @hf_ulmap_padding, align 4
  %91 = load ptr, ptr %5, align 8
  %92 = load i32, ptr %11, align 4
  %93 = udiv i32 %92, 2
  %94 = load i32, ptr %11, align 4
  %95 = and i32 %94, 1
  %96 = add i32 1, %95
  %97 = add i32 %96, 1
  %98 = udiv i32 %97, 2
  %99 = call ptr (ptr, i32, ptr, i32, i32, ptr, ptr, ...) @proto_tree_add_bytes_format(ptr noundef %89, i32 noundef %90, ptr noundef %91, i32 noundef %93, i32 noundef %98, ptr noundef null, ptr noundef @.str.12)
  %100 = load i32, ptr %11, align 4
  %101 = add i32 %100, 1
  store i32 %101, ptr %11, align 4
  br label %102

102:                                              ; preds = %88, %83
  %103 = load ptr, ptr %5, align 8
  %104 = call i32 @tvb_captured_length(ptr noundef %103)
  call void @llvm.lifetime.end.p0(i64 4, ptr %16) #5
  call void @llvm.lifetime.end.p0(i64 8, ptr %15) #5
  call void @llvm.lifetime.end.p0(i64 8, ptr %14) #5
  call void @llvm.lifetime.end.p0(i64 8, ptr %13) #5
  call void @llvm.lifetime.end.p0(i64 4, ptr %12) #5
  call void @llvm.lifetime.end.p0(i64 4, ptr %11) #5
  call void @llvm.lifetime.end.p0(i64 4, ptr %10) #5
  call void @llvm.lifetime.end.p0(i64 4, ptr %9) #5
  ret i32 %104
}