; Function Attrs: null_pointer_is_valid sspstrong uwtable
define internal i32 @dissect_mac_mgmt_msg_ulmap_decoder(ptr noundef %0, ptr noundef %1, ptr noundef %2, ptr readnone captures(none) %3) #1 {
  %5 = tail call i32 @tvb_reported_length(ptr noundef %0)
  %6 = load i32, ptr @proto_mac_mgmt_msg_ulmap_decoder, align 4
  %7 = tail call ptr (ptr, i32, ptr, i32, i32, ptr, ...) @proto_tree_add_protocol_format(ptr noundef %2, i32 noundef %6, ptr noundef %0, i32 noundef 0, i32 noundef -1, ptr noundef nonnull @.str.558)
  %8 = load i32, ptr @ett_ulmap, align 4
  %9 = tail call ptr @proto_item_add_subtree(ptr noundef %7, i32 noundef %8)
  %10 = load i32, ptr @hf_ulmap_reserved, align 4
  %11 = tail call ptr @proto_tree_add_item(ptr noundef %9, i32 noundef %10, ptr noundef %0, i32 noundef 0, i32 noundef 1, i32 noundef 0)
  %12 = load i32, ptr @hf_ulmap_ucd_count, align 4
  %13 = tail call ptr @proto_tree_add_item(ptr noundef %9, i32 noundef %12, ptr noundef %0, i32 noundef 1, i32 noundef 1, i32 noundef 0)
  %14 = load i32, ptr @hf_ulmap_alloc_start_time, align 4
  %15 = tail call ptr @proto_tree_add_item(ptr noundef %9, i32 noundef %14, ptr noundef %0, i32 noundef 2, i32 noundef 4, i32 noundef 0)
  %16 = load i32, ptr @hf_ulmap_ofdma_sym, align 4
  %17 = tail call ptr @proto_tree_add_item(ptr noundef %9, i32 noundef %16, ptr noundef %0, i32 noundef 6, i32 noundef 1, i32 noundef 0)
  %18 = add i32 %5, -7
  %19 = load i32, ptr @ett_ulmap_ie, align 4
  %20 = tail call ptr (ptr, ptr, i32, i32, i32, ptr, ptr, ...) @proto_tree_add_subtree_format(ptr noundef %9, ptr noundef %0, i32 noundef 7, i32 noundef %18, i32 noundef %19, ptr noundef null, ptr noundef nonnull @.str.11, i32 noundef %18)
  %21 = shl i32 %5, 1
  %22 = add i32 %21, -1
  %23 = icmp ugt i32 %22, 14
  br i1 %23, label %.lr.ph, label %._crit_edge.thread

.lr.ph:                                           ; preds = %4, %.lr.ph
  %.045 = phi i32 [ %25, %.lr.ph ], [ 14, %4 ]
  %24 = tail call i32 @dissect_ulmap_ie(ptr noundef %20, ptr noundef %1, i32 noundef %.045, i32 poison, ptr noundef %0)
  %25 = add i32 %24, %.045
  %26 = icmp ult i32 %25, %22
  br i1 %26, label %.lr.ph, label %._crit_edge, !llvm.loop !24

._crit_edge:                                      ; preds = %.lr.ph
  %27 = and i32 %25, 1
  %.not = icmp eq i32 %27, 0
  br i1 %.not, label %._crit_edge.thread, label %28

28:                                               ; preds = %._crit_edge
  %29 = load i32, ptr @hf_ulmap_padding, align 4
  %30 = lshr i32 %25, 1
  %31 = tail call ptr (ptr, i32, ptr, i32, i32, ptr, ptr, ...) @proto_tree_add_bytes_format(ptr noundef %9, i32 noundef %29, ptr noundef %0, i32 noundef %30, i32 noundef 1, ptr noundef null, ptr noundef nonnull @.str.12)
  br label %._crit_edge.thread

._crit_edge.thread:                               ; preds = %4, %28, %._crit_edge
  %32 = tail call i32 @tvb_captured_length(ptr noundef %0)
  ret i32 %32
}